; Function Attrs: nounwind uwtable
define internal fastcc ptr @preprocess_expression(ptr noundef %0, ptr noundef %1, i32 noundef range(i32 0, 14) %2) unnamed_addr #0 {
  %4 = icmp eq ptr %1, null
  br i1 %4, label %43, label %5

5:                                                ; preds = %3
  %6 = getelementptr inbounds nuw i8, ptr %0, i64 596
  %7 = load i8, ptr %6, align 4, !range !4, !noundef !5
  %8 = trunc nuw i8 %7 to i1
  %.not = xor i1 %8, true
  %9 = icmp eq i32 %2, 2
  %10 = icmp eq i32 %2, 4
  %11 = or i1 %10, %.not
  %12 = and i32 %2, 13
  %13 = icmp eq i32 %12, 9
  %14 = or i1 %13, %11
  %or.cond7 = or i1 %9, %14
  br i1 %or.cond7, label %19, label %15

15:                                               ; preds = %5
  %16 = getelementptr inbounds nuw i8, ptr %0, i64 8
  %17 = load ptr, ptr %16, align 8
  %18 = tail call ptr @flatten_join_alias_vars(ptr noundef nonnull %0, ptr noundef %17, ptr noundef nonnull %1) #12
  br label %19

19:                                               ; preds = %15, %5
  %.036 = phi ptr [ %1, %5 ], [ %18, %15 ]
  br i1 %9, label %.thread45, label %20

20:                                               ; preds = %19
  %21 = tail call ptr @eval_const_expressions(ptr noundef nonnull %0, ptr noundef %.036) #12
  %22 = icmp eq i32 %2, 0
  br i1 %22, label %.thread40, label %24

.thread40:                                        ; preds = %20
  %23 = tail call ptr @canonicalize_qual(ptr noundef %21, i1 noundef zeroext false) #12
  br label %25

24:                                               ; preds = %20
  %or.cond9 = icmp eq i32 %2, 1
  br i1 %or.cond9, label %25, label %.thread45

25:                                               ; preds = %.thread40, %24
  %.243 = phi ptr [ %23, %.thread40 ], [ %21, %24 ]
  tail call void @convert_saop_to_hashed_saop(ptr noundef %.243) #12
  br label %.thread45

.thread45:                                        ; preds = %19, %24, %25
  %.244 = phi ptr [ %21, %24 ], [ %.243, %25 ], [ %.036, %19 ]
  %26 = phi i1 [ false, %24 ], [ %22, %25 ], [ false, %19 ]
  %27 = getelementptr inbounds nuw i8, ptr %0, i64 8
  %28 = load ptr, ptr %27, align 8
  %29 = getelementptr inbounds nuw i8, ptr %28, i64 47
  %30 = load i8, ptr %29, align 1, !range !4, !noundef !5
  %31 = trunc nuw i8 %30 to i1
  br i1 %31, label %32, label %34

32:                                               ; preds = %.thread45
  %33 = tail call ptr @SS_process_sublinks(ptr noundef nonnull %0, ptr noundef %.244, i1 noundef zeroext %26) #12
  br label %34

34:                                               ; preds = %32, %.thread45
  %.3 = phi ptr [ %33, %32 ], [ %.244, %.thread45 ]
  %35 = getelementptr inbounds nuw i8, ptr %0, i64 24
  %36 = load i32, ptr %35, align 8
  %37 = icmp ugt i32 %36, 1
  br i1 %37, label %38, label %40

38:                                               ; preds = %34
  %39 = tail call ptr @SS_replace_correlation_vars(ptr noundef nonnull %0, ptr noundef %.3) #12
  br label %40

40:                                               ; preds = %38, %34
  %.4 = phi ptr [ %39, %38 ], [ %.3, %34 ]
  br i1 %26, label %41, label %43

41:                                               ; preds = %40
  %42 = tail call ptr @make_ands_implicit(ptr noundef %.4) #12
  br label %43

43:                                               ; preds = %40, %41, %3
  %.0 = phi ptr [ null, %3 ], [ %42, %41 ], [ %.4, %40 ]
  ret ptr %.0
}